target datalayout = "e-m:e-p270:32:32-p271:32:32-p272:64:64-i64:64-i128:128-f80:128-n8:16:32:64-S128"
target triple = "x86_64-pc-linux-gnu"

%struct._value_string = type { i32, ptr }
%struct._StringInfo = type { ptr, i32 }
%struct._SslSession = type { i32, i32, i16, i8, [32 x i8], i8, i8, i32, i32, i32, %struct._StringInfo, i8, i8, [8 x i8], [8 x i8], [16 x i8], %struct._address, i32, i32, ptr, ptr, ptr, i32, i8, i32, i32, ptr, ptr, i8, i8, i8, i8, i8, [2 x i64], [2 x i64] }
%struct._address = type { i32, i32, ptr, ptr }
%struct._packet_info = type { ptr, ptr, i32, i32, %struct.nstime_t, %struct.nstime_t, %struct.nstime_t, i8, ptr, ptr, ptr, ptr, %struct._address, %struct._address, %struct._address, %struct._address, %struct._address, %struct._address, i32, ptr, i8, [3 x i8], %struct.anon, i32, i32, i32, i32, ptr, i8, ptr, ptr, i16, i16, i32, i32, i16, i32, i32, ptr, ptr, ptr, i8, i8, i16, i16, i16, i32, i16, i16, ptr, ptr, ptr, ptr, ptr, i32, i32 }
%struct.nstime_t = type { i64, i32 }
%struct.anon = type { i8, [3 x i8] }
%struct.tlsinfo = type { i32, i8, i8, ptr }

@hf_tls_alert_message = internal global i32 0, align 4
@hf_tls_alert_message_level = internal global i32 0, align 4
@ssl_31_alert_level = external constant [0 x %struct._value_string], align 8
@hf_tls_alert_message_description = internal global i32 0, align 4
@ssl_31_alert_description = external constant [0 x %struct._value_string], align 8
@ett_tls_alert = internal global i32 0, align 4
@.str.911 = private unnamed_addr constant [4 x i8] c"TLS\00", align 1
@ssl_version_short_names = external constant [0 x %struct._value_string], align 8
@.str.1023 = private unnamed_addr constant [16 x i8] c"Encrypted Alert\00", align 1
@.str.1024 = private unnamed_addr constant [33 x i8] c"%s Record Layer: Encrypted Alert\00", align 1
@.str.1025 = private unnamed_addr constant [31 x i8] c"Alert Message: Encrypted Alert\00", align 1
@.str.1026 = private unnamed_addr constant [8 x i8] c"Unknown\00", align 1
@.str.1027 = private unnamed_addr constant [35 x i8] c"Alert (Level: %s, Description: %s)\00", align 1
@.str.1028 = private unnamed_addr constant [52 x i8] c"%s Record Layer: Alert (Level: %s, Description: %s)\00", align 1

; Function Attrs: null_pointer_is_valid sspstrong uwtable
define internal void @dissect_ssl3_alert(ptr noundef %0, ptr noundef %1, ptr noundef %2, i32 noundef %3, i32 noundef %4, ptr noundef %5, ptr noundef %6) #0 {
  %8 = alloca ptr, align 8
  %9 = alloca ptr, align 8
  %10 = alloca ptr, align 8
  %11 = alloca i32, align 4
  %12 = alloca i32, align 4
  %13 = alloca ptr, align 8
  %14 = alloca ptr, align 8
  %15 = alloca ptr, align 8
  %16 = alloca ptr, align 8
  %17 = alloca ptr, align 8
  %18 = alloca ptr, align 8
  %19 = alloca i8, align 1
  %20 = alloca i8, align 1
  %21 = alloca i32, align 4
  store ptr %0, ptr %8, align 8
  store ptr %1, ptr %9, align 8
  store ptr %2, ptr %10, align 8
  store i32 %3, ptr %11, align 4
  store i32 %4, ptr %12, align 4
  store ptr %5, ptr %13, align 8
  store ptr %6, ptr %14, align 8
  call void @llvm.lifetime.start.p0(i64 8, ptr %15) #18
  call void @llvm.lifetime.start.p0(i64 8, ptr %16) #18
  store ptr null, ptr %16, align 8
  call void @llvm.lifetime.start.p0(i64 8, ptr %17) #18
  call void @llvm.lifetime.start.p0(i64 8, ptr %18) #18
  call void @llvm.lifetime.start.p0(i64 1, ptr %19) #18
  call void @llvm.lifetime.start.p0(i64 1, ptr %20) #18
  %22 = load ptr, ptr %10, align 8
  %23 = icmp ne ptr %22, null
  br i1 %23, label %24, label %34

24:                                               ; preds = %7
  %25 = load ptr, ptr %10, align 8
  %26 = load i32, ptr @hf_tls_alert_message, align 4
  %27 = load ptr, ptr %8, align 8
  %28 = load i32, ptr %11, align 4
  %29 = load i32, ptr %12, align 4
  %30 = call ptr @proto_tree_add_item(ptr noundef %25, i32 noundef %26, ptr noundef %27, i32 noundef %28, i32 noundef %29, i32 noundef 0)
  store ptr %30, ptr %15, align 8
  %31 = load ptr, ptr %15, align 8
  %32 = load i32, ptr @ett_tls_alert, align 4
  %33 = call ptr @proto_item_add_subtree(ptr noundef %31, i32 noundef %32)
  store ptr %33, ptr %16, align 8
  br label %34

34:                                               ; preds = %24, %7
  %35 = load i32, ptr %12, align 4
  %36 = icmp ne i32 %35, 2
  br i1 %36, label %37, label %48

37:                                               ; preds = %34
  %38 = load ptr, ptr %9, align 8
  %39 = getelementptr inbounds nuw %struct._packet_info, ptr %38, i32 0, i32 1
  %40 = load ptr, ptr %39, align 8
  call void @col_append_sep_str(ptr noundef %40, i32 noundef 25, ptr noundef null, ptr noundef @.str.1023)
  %41 = load ptr, ptr %10, align 8
  %42 = load ptr, ptr %13, align 8
  %43 = getelementptr inbounds nuw %struct._SslSession, ptr %42, i32 0, i32 2
  %44 = load i16, ptr %43, align 8
  %45 = zext i16 %44 to i32
  %46 = call ptr @val_to_str_const(i32 noundef %45, ptr noundef @ssl_version_short_names, ptr noundef @.str.911)
  call void (ptr, ptr, ...) @proto_item_set_text(ptr noundef %41, ptr noundef @.str.1024, ptr noundef %46)
  %47 = load ptr, ptr %16, align 8
  call void (ptr, ptr, ...) @proto_item_set_text(ptr noundef %47, ptr noundef @.str.1025)
  store i32 1, ptr %21, align 4
  br label %98

48:                                               ; preds = %34
  %49 = load ptr, ptr %8, align 8
  %50 = load i32, ptr %11, align 4
  %51 = call zeroext i8 @tvb_get_uint8(ptr noundef %49, i32 noundef %50)
  store i8 %51, ptr %19, align 1
  %52 = load i8, ptr %19, align 1
  %53 = zext i8 %52 to i32
  %54 = call ptr @val_to_str_const(i32 noundef %53, ptr noundef @ssl_31_alert_level, ptr noundef @.str.1026)
  store ptr %54, ptr %17, align 8
  %55 = load ptr, ptr %8, align 8
  %56 = load i32, ptr %11, align 4
  %57 = add i32 %56, 1
  %58 = call zeroext i8 @tvb_get_uint8(ptr noundef %55, i32 noundef %57)
  store i8 %58, ptr %20, align 1
  %59 = load i8, ptr %20, align 1
  %60 = zext i8 %59 to i32
  %61 = call ptr @val_to_str_const(i32 noundef %60, ptr noundef @ssl_31_alert_description, ptr noundef @.str.1026)
  store ptr %61, ptr %18, align 8
  %62 = load i8, ptr %20, align 1
  %63 = zext i8 %62 to i32
  %64 = icmp eq i32 %63, 0
  br i1 %64, label %65, label %68

65:                                               ; preds = %48
  %66 = load ptr, ptr %14, align 8
  %67 = getelementptr inbounds nuw %struct.tlsinfo, ptr %66, i32 0, i32 2
  store i8 1, ptr %67, align 1
  br label %68

68:                                               ; preds = %65, %48
  %69 = load ptr, ptr %9, align 8
  %70 = getelementptr inbounds nuw %struct._packet_info, ptr %69, i32 0, i32 1
  %71 = load ptr, ptr %70, align 8
  %72 = load ptr, ptr %17, align 8
  %73 = load ptr, ptr %18, align 8
  call void (ptr, i32, ptr, ptr, ...) @col_append_sep_fstr(ptr noundef %71, i32 noundef 25, ptr noundef null, ptr noundef @.str.1027, ptr noundef %72, ptr noundef %73)
  %74 = load ptr, ptr %10, align 8
  %75 = icmp ne ptr %74, null
  br i1 %75, label %76, label %97

76:                                               ; preds = %68
  %77 = load ptr, ptr %10, align 8
  %78 = load ptr, ptr %13, align 8
  %79 = getelementptr inbounds nuw %struct._SslSession, ptr %78, i32 0, i32 2
  %80 = load i16, ptr %79, align 8
  %81 = zext i16 %80 to i32
  %82 = call ptr @val_to_str_const(i32 noundef %81, ptr noundef @ssl_version_short_names, ptr noundef @.str.911)
  %83 = load ptr, ptr %17, align 8
  %84 = load ptr, ptr %18, align 8
  call void (ptr, ptr, ...) @proto_item_set_text(ptr noundef %77, ptr noundef @.str.1028, ptr noundef %82, ptr noundef %83, ptr noundef %84)
  %85 = load ptr, ptr %16, align 8
  %86 = load i32, ptr @hf_tls_alert_message_level, align 4
  %87 = load ptr, ptr %8, align 8
  %88 = load i32, ptr %11, align 4
  %89 = add i32 %88, 1
  store i32 %89, ptr %11, align 4
  %90 = call ptr @proto_tree_add_item(ptr noundef %85, i32 noundef %86, ptr noundef %87, i32 noundef %88, i32 noundef 1, i32 noundef 0)
  %91 = load ptr, ptr %16, align 8
  %92 = load i32, ptr @hf_tls_alert_message_description, align 4
  %93 = load ptr, ptr %8, align 8
  %94 = load i32, ptr %11, align 4
  %95 = add i32 %94, 1
  store i32 %95, ptr %11, align 4
  %96 = call ptr @proto_tree_add_item(ptr noundef %91, i32 noundef %92, ptr noundef %93, i32 noundef %94, i32 noundef 1, i32 noundef 0)
  br label %97

97:                                               ; preds = %76, %68
  store i32 0, ptr %21, align 4
  br label %98

98:                                               ; preds = %97, %37
  call void @llvm.lifetime.end.p0(i64 1, ptr %20) #18
  call void @llvm.lifetime.end.p0(i64 1, ptr %19) #18
  call void @llvm.lifetime.end.p0(i64 8, ptr %18) #18
  call void @llvm.lifetime.end.p0(i64 8, ptr %17) #18
  call void @llvm.lifetime.end.p0(i64 8, ptr %16) #18
  call void @llvm.lifetime.end.p0(i64 8, ptr %15) #18
  %99 = load i32, ptr %21, align 4
  switch i32 %99, label %101 [
    i32 0, label %100
    i32 1, label %100
  ]

100:                                              ; preds = %98, %98
  ret void

101:                                              ; preds = %98
  unreachable
}