; Function Attrs: null_pointer_is_valid sspstrong uwtable
define internal fastcc void @dissect_ssl3_alert(ptr noundef %0, ptr noundef readonly captures(none) %1, ptr noundef %2, i32 noundef %3, i32 noundef range(i32 0, 65536) %4, ptr noundef readonly captures(none) %5, ptr noundef writeonly captures(none) %6) unnamed_addr #0 {
  %.not = icmp eq ptr %2, null
  br i1 %.not, label %13, label %8

8:                                                ; preds = %7
  %9 = load i32, ptr @hf_tls_alert_message, align 4
  %10 = tail call ptr @proto_tree_add_item(ptr noundef nonnull %2, i32 noundef %9, ptr noundef %0, i32 noundef %3, i32 noundef %4, i32 noundef 0)
  %11 = load i32, ptr @ett_tls_alert, align 4
  %12 = tail call ptr @proto_item_add_subtree(ptr noundef %10, i32 noundef %11)
  br label %13

13:                                               ; preds = %8, %7
  %.0 = phi ptr [ %12, %8 ], [ null, %7 ]
  %.not33 = icmp eq i32 %4, 2
  br i1 %.not33, label %21, label %14

14:                                               ; preds = %13
  %15 = getelementptr inbounds nuw i8, ptr %1, i64 8
  %16 = load ptr, ptr %15, align 8
  tail call void @col_append_sep_str(ptr noundef %16, i32 noundef 25, ptr noundef null, ptr noundef nonnull @.str.1023)
  %17 = getelementptr inbounds nuw i8, ptr %5, i64 8
  %18 = load i16, ptr %17, align 8
  %19 = zext i16 %18 to i32
  %20 = tail call ptr @val_to_str_const(i32 noundef %19, ptr noundef nonnull @ssl_version_short_names, ptr noundef nonnull @.str.911)
  tail call void (ptr, ptr, ...) @proto_item_set_text(ptr noundef %2, ptr noundef nonnull @.str.1024, ptr noundef %20)
  tail call void (ptr, ptr, ...) @proto_item_set_text(ptr noundef %.0, ptr noundef nonnull @.str.1025)
  br label %44

21:                                               ; preds = %13
  %22 = tail call zeroext i8 @tvb_get_uint8(ptr noundef %0, i32 noundef %3)
  %23 = zext i8 %22 to i32
  %24 = tail call ptr @val_to_str_const(i32 noundef %23, ptr noundef nonnull @ssl_31_alert_level, ptr noundef nonnull @.str.1026)
  %25 = add i32 %3, 1
  %26 = tail call zeroext i8 @tvb_get_uint8(ptr noundef %0, i32 noundef %25)
  %27 = zext i8 %26 to i32
  %28 = tail call ptr @val_to_str_const(i32 noundef %27, ptr noundef nonnull @ssl_31_alert_description, ptr noundef nonnull @.str.1026)
  %29 = icmp eq i8 %26, 0
  br i1 %29, label %30, label %32

30:                                               ; preds = %21
  %31 = getelementptr inbounds nuw i8, ptr %6, i64 5
  store i8 1, ptr %31, align 1
  br label %32

32:                                               ; preds = %30, %21
  %33 = getelementptr inbounds nuw i8, ptr %1, i64 8
  %34 = load ptr, ptr %33, align 8
  tail call void (ptr, i32, ptr, ptr, ...) @col_append_sep_fstr(ptr noundef %34, i32 noundef 25, ptr noundef null, ptr noundef nonnull @.str.1027, ptr noundef %24, ptr noundef %28)
  br i1 %.not, label %44, label %35

35:                                               ; preds = %32
  %36 = getelementptr inbounds nuw i8, ptr %5, i64 8
  %37 = load i16, ptr %36, align 8
  %38 = zext i16 %37 to i32
  %39 = tail call ptr @val_to_str_const(i32 noundef %38, ptr noundef nonnull @ssl_version_short_names, ptr noundef nonnull @.str.911)
  tail call void (ptr, ptr, ...) @proto_item_set_text(ptr noundef nonnull %2, ptr noundef nonnull @.str.1028, ptr noundef %39, ptr noundef %24, ptr noundef %28)
  %40 = load i32, ptr @hf_tls_alert_message_level, align 4
  %41 = tail call ptr @proto_tree_add_item(ptr noundef %.0, i32 noundef %40, ptr noundef %0, i32 noundef %3, i32 noundef 1, i32 noundef 0)
  %42 = load i32, ptr @hf_tls_alert_message_description, align 4
  %43 = tail call ptr @proto_tree_add_item(ptr noundef %.0, i32 noundef %42, ptr noundef %0, i32 noundef %25, i32 noundef 1, i32 noundef 0)
  br label %44

44:                                               ; preds = %32, %35, %14
  ret void
}